(lp1
S'Site("en", "wikipedia")LoginStatus(NOT_LOGGED_IN)[(\'action\', \'paraminfo\'), (\'format\', \'json\'), (\'maxlag\', \'5\'), (\'querymodules\', \'info|revisions\')]'
p2
a(dp3
Vparaminfo
p4
(dp5
Vquerymodules
p6
(lp7
(dp8
Vdescription
p9
VGet basic page information such as namespace, title, last touched date, ...
p10
sVparameters
p11
(lp12
(dp13
Vmulti
p14
V
sVname
p15
Vprop
p16
sVhighlimit
p17
I500
sVlowlimit
p18
I50
sVlimit
p19
I50
sVtype
p20
(lp21
Vprotection
p22
aVtalkid
p23
aVwatched
p24
aVwatchers
p25
aVnotificationtimestamp
p26
aVsubjectid
p27
aVurl
p28
aVreadable
p29
aVpreload
p30
aVdisplaytitle
p31
asVdescription
p32
VWhich additional properties to get:\u000a protection            - List the protection level of each page\u000a talkid                - The page ID of the talk page for each non-talk page\u000a watched               - List the watched status of each page\u000a watchers              - The number of watchers, if allowed\u000a notificationtimestamp - The watchlist notification timestamp of each page\u000a subjectid             - The page ID of the parent page for each talk page\u000a url                   - Gives a full URL, an edit URL, and the canonical URL for each page\u000a readable              - Whether the user can read this page\u000a preload               - Gives the text returned by EditFormPreloadText\u000a displaytitle          - Gives the way the page title is actually displayed
p33
sa(dp34
Vmulti
p35
V
sVname
p36
Vtoken
p37
sVdeprecated
p38
V
sVhighlimit
p39
I500
sVlowlimit
p40
I50
sVlimit
p41
I50
sVtype
p42
(lp43
Vedit
p44
aVdelete
p45
aVprotect
p46
aVmove
p47
aVblock
p48
aVunblock
p49
aVemail
p50
aVimport
p51
aVwatch
p52
asVdescription
p53
VRequest a token to perform a data-modifying action on a page
p54
sa(dp55
Vtype
p56
Vstring
p57
sVname
p58
Vcontinue
p59
sVdescription
p60
VWhen more results are available, use this to continue
p61
sasVhelpurls
p62
(lp63
Vhttps://www.mediawiki.org/wiki/API:Properties#info_.2F_in
p64
asVclassname
p65
VApiQueryInfo
p66
sVprefix
p67
Vin
p68
sVversion
p69
V
sVexamples
p70
Vapi.php?action=query&prop=info&titles=Main%20Page api.php?action=query&prop=info&inprop=protection&titles=Main%20Page
p71
sVreadrights
p72
V
sVallexamples
p73
(lp74
(dp75
V*
Vapi.php?action=query&prop=info&titles=Main%20Page
p76
sa(dp77
V*
Vapi.php?action=query&prop=info&inprop=protection&titles=Main%20Page
p78
sasVquerytype
p79
Vprop
p80
sVname
p81
Vinfo
p82
sa(dp83
Vdescription
p84
VGet revision information.\u000aMay be used in several ways:\u000a 1) Get data about a set of pages (last revision), by setting titles or pageids parameter.\u000a 2) Get revisions for one given page, by using titles/pageids with start/end/limit params.\u000a 3) Get data about a set of revisions by setting their IDs with revids parameter.\u000aAll parameters marked as (enum) may only be used with a single page (#2).
p85
sVparameters
p86
(lp87
(dp88
Vmulti
p89
V
sVname
p90
Vprop
p91
sVdefault
p92
Vids|timestamp|flags|comment|user
p93
sVhighlimit
p94
I500
sVlowlimit
p95
I50
sVlimit
p96
I50
sVtype
p97
(lp98
Vids
p99
aVflags
p100
aVtimestamp
p101
aVuser
p102
aVuserid
p103
aVsize
p104
aVsha1
p105
aVcontentmodel
p106
aVcomment
p107
aVparsedcomment
p108
aVcontent
p109
aVtags
p110
aVflagged
p111
asVdescription
p112
VWhich properties to get for each revision:\u000a ids            - The ID of the revision\u000a flags          - Revision flags (minor)\u000a timestamp      - The timestamp of the revision\u000a user           - User that made the revision\u000a userid         - User id of revision creator\u000a size           - Length (bytes) of the revision\u000a sha1           - SHA-1 (base 16) of the revision\u000a contentmodel   - Content model id\u000a comment        - Comment by the user for revision\u000a parsedcomment  - Parsed comment by the user for the revision\u000a content        - Text of the revision\u000a tags           - Tags for the revision
p113
sa(dp114
Vname
p115
Vlimit
p116
sVmin
p117
I1
sVhighmax
p118
I5000
sVmax
p119
I500
sVtype
p120
Vlimit
p121
sVdescription
p122
VLimit how many revisions will be returned (enum)
p123
sa(dp124
Vtype
p125
Vinteger
p126
sVname
p127
Vstartid
p128
sVdescription
p129
VFrom which revision id to start enumeration (enum)
p130
sa(dp131
Vtype
p132
Vinteger
p133
sVname
p134
Vendid
p135
sVdescription
p136
VStop revision enumeration on this revid (enum)
p137
sa(dp138
Vtype
p139
Vtimestamp
p140
sVname
p141
Vstart
p142
sVdescription
p143
VFrom which revision timestamp to start enumeration (enum)
p144
sa(dp145
Vtype
p146
Vtimestamp
p147
sVname
p148
Vend
p149
sVdescription
p150
VEnumerate up to this timestamp (enum)
p151
sa(dp152
Vdefault
p153
Volder
p154
sVtype
p155
(lp156
Vnewer
p157
aVolder
p158
asVname
p159
Vdir
p160
sVdescription
p161
VIn which direction to enumerate (enum)\u000a newer          - List oldest first. Note: rvstart has to be before rvend.\u000a older          - List newest first (default). Note: rvstart has to be later than rvend.
p162
sa(dp163
Vtype
p164
Vuser
p165
sVname
p166
Vuser
p167
sVdescription
p168
VOnly include revisions made by user (enum)
p169
sa(dp170
Vtype
p171
Vuser
p172
sVname
p173
Vexcludeuser
p174
sVdescription
p175
VExclude revisions made by user (enum)
p176
sa(dp177
Vtype
p178
Vstring
p179
sVname
p180
Vtag
p181
sVdescription
p182
VOnly list revisions tagged with this tag
p183
sa(dp184
Vdefault
p185
Vfalse
p186
sVtype
p187
Vboolean
p188
sVname
p189
Vexpandtemplates
p190
sVdescription
p191
VExpand templates in revision content (requires rvprop=content)
p192
sa(dp193
Vdefault
p194
Vfalse
p195
sVtype
p196
Vboolean
p197
sVname
p198
Vgeneratexml
p199
sVdescription
p200
VGenerate XML parse tree for revision content (requires rvprop=content)
p201
sa(dp202
Vdefault
p203
Vfalse
p204
sVtype
p205
Vboolean
p206
sVname
p207
Vparse
p208
sVdescription
p209
VParse revision content (requires rvprop=content).\u000aFor performance reasons if this option is used, rvlimit is enforced to 1.
p210
sa(dp211
Vtype
p212
Vstring
p213
sVname
p214
Vsection
p215
sVdescription
p216
VOnly retrieve the content of this section number
p217
sa(dp218
Vmulti
p219
V
sVname
p220
Vtoken
p221
sVdeprecated
p222
V
sVhighlimit
p223
I500
sVlowlimit
p224
I50
sVlimit
p225
I50
sVtype
p226
(lp227
Vrollback
p228
asVdescription
p229
VWhich tokens to obtain for each revision
p230
sa(dp231
Vtype
p232
Vstring
p233
sVname
p234
Vcontinue
p235
sVdescription
p236
VWhen more results are available, use this to continue
p237
sa(dp238
Vtype
p239
Vstring
p240
sVname
p241
Vdiffto
p242
sVdescription
p243
VRevision ID to diff each revision to.\u000aUse "prev", "next" and "cur" for the previous, next and current revision respectively
p244
sa(dp245
Vtype
p246
Vstring
p247
sVname
p248
Vdifftotext
p249
sVdescription
p250
VText to diff each revision to. Only diffs a limited number of revisions.\u000aOverrides rvdiffto. If rvsection is set, only that section will be\u000adiffed against this text
p251
sa(dp252
Vtype
p253
(lp254
Vtext/x-wiki
p255
aVtext/javascript
p256
aVapplication/json
p257
aVtext/css
p258
aVtext/plain
p259
asVname
p260
Vcontentformat
p261
sVdescription
p262
VSerialization format used for difftotext and expected for output of content
p263
sasVhelpurls
p264
(lp265
Vhttps://www.mediawiki.org/wiki/API:Properties#revisions_.2F_rv
p266
asVclassname
p267
VApiQueryRevisions
p268
sVprefix
p269
Vrv
p270
sVversion
p271
V
sVexamples
p272
VGet data with content for the last revision of titles "API" and "Main Page"   api.php?action=query&prop=revisions&titles=API|Main%20Page&rvprop=timestamp|user|comment|content Get last 5 revisions of the "Main Page"   api.php?action=query&prop=revisions&titles=Main%20Page&rvlimit=5&rvprop=timestamp|user|comment Get first 5 revisions of the "Main Page"   api.php?action=query&prop=revisions&titles=Main%20Page&rvlimit=5&rvprop=timestamp|user|comment&rvdir=newer Get first 5 revisions of the "Main Page" made after 2006-05-01   api.php?action=query&prop=revisions&titles=Main%20Page&rvlimit=5&rvprop=timestamp|user|comment&rvdir=newer&rvstart=20060501000000 Get first 5 revisions of the "Main Page" that were not made made by anonymous user "127.0.0.1"   api.php?action=query&prop=revisions&titles=Main%20Page&rvlimit=5&rvprop=timestamp|user|comment&rvexcludeuser=127.0.0.1 Get first 5 revisions of the "Main Page" that were made by the user "MediaWiki default"   api.php?action=query&prop=revisions&titles=Main%20Page&rvlimit=5&rvprop=timestamp|user|comment&rvuser=MediaWiki%20default
p273
sVreadrights
p274
V
sVallexamples
p275
(lp276
(dp277
V*
VGet data with content for the last revision of titles "API" and "Main Page"
p278
sa(dp279
V*
V  api.php?action=query&prop=revisions&titles=API|Main%20Page&rvprop=timestamp|user|comment|content
p280
sa(dp281
V*
VGet last 5 revisions of the "Main Page"
p282
sa(dp283
V*
V  api.php?action=query&prop=revisions&titles=Main%20Page&rvlimit=5&rvprop=timestamp|user|comment
p284
sa(dp285
V*
VGet first 5 revisions of the "Main Page"
p286
sa(dp287
V*
V  api.php?action=query&prop=revisions&titles=Main%20Page&rvlimit=5&rvprop=timestamp|user|comment&rvdir=newer
p288
sa(dp289
V*
VGet first 5 revisions of the "Main Page" made after 2006-05-01
p290
sa(dp291
V*
V  api.php?action=query&prop=revisions&titles=Main%20Page&rvlimit=5&rvprop=timestamp|user|comment&rvdir=newer&rvstart=20060501000000
p292
sa(dp293
V*
VGet first 5 revisions of the "Main Page" that were not made made by anonymous user "127.0.0.1"
p294
sa(dp295
V*
V  api.php?action=query&prop=revisions&titles=Main%20Page&rvlimit=5&rvprop=timestamp|user|comment&rvexcludeuser=127.0.0.1
p296
sa(dp297
V*
VGet first 5 revisions of the "Main Page" that were made by the user "MediaWiki default"
p298
sa(dp299
V*
V  api.php?action=query&prop=revisions&titles=Main%20Page&rvlimit=5&rvprop=timestamp|user|comment&rvuser=MediaWiki%20default
p300
sasVquerytype
p301
Vprop
p302
sVname
p303
Vrevisions
p304
sassacdatetime
datetime
p305
(S'\x07\xde\t\x14\x0b\x11\x13\n\xc9\xb8'
tRp306
a.