(lp1
S'Site("en", "wikipedia")LoginStatus(NOT_LOGGED_IN)[(\'action\', \'paraminfo\'), (\'format\', \'json\'), (\'maxlag\', \'5\'), (\'querymodules\', \'templates\')]'
p2
a(dp3
Vparaminfo
p4
(dp5
Vquerymodules
p6
(lp7
(dp8
Vdescription
p9
VReturns all templates from the given page(s).
p10
sVgenerator
p11
V
sVparameters
p12
(lp13
(dp14
Vmulti
p15
V
sVname
p16
Vnamespace
p17
sVhighlimit
p18
I500
sVlowlimit
p19
I50
sVlimit
p20
I50
sVtype
p21
Vnamespace
p22
sVdescription
p23
VShow templates in this namespace(s) only
p24
sa(dp25
Vname
p26
Vlimit
p27
sVmin
p28
I1
sVdefault
p29
I10
sVmax
p30
I500
sVhighmax
p31
I5000
sVtype
p32
Vlimit
p33
sVdescription
p34
VHow many templates to return
p35
sa(dp36
Vtype
p37
Vstring
p38
sVname
p39
Vcontinue
p40
sVdescription
p41
VWhen more results are available, use this to continue
p42
sa(dp43
Vmulti
p44
V
sVname
p45
Vtemplates
p46
sVhighlimit
p47
I500
sVlowlimit
p48
I50
sVlimit
p49
I50
sVtype
p50
Vstring
p51
sVdescription
p52
VOnly list these templates. Useful for checking whether a certain page uses a certain template.
p53
sa(dp54
Vdefault
p55
Vascending
p56
sVtype
p57
(lp58
Vascending
p59
aVdescending
p60
asVname
p61
Vdir
p62
sVdescription
p63
VThe direction in which to list
p64
sasVhelpurls
p65
(lp66
Vhttps://www.mediawiki.org/wiki/API:Properties#templates_.2F_tl
p67
asVclassname
p68
VApiQueryLinks
p69
sVprefix
p70
Vtl
p71
sVversion
p72
V
sVexamples
p73
VGet templates from the [[Main Page]] api.php?action=query&prop=templates&titles=Main%20Page Get information about the template pages in the [[Main Page]] api.php?action=query&generator=templates&titles=Main%20Page&prop=info Get templates from the Main Page in the User and Template namespaces api.php?action=query&prop=templates&titles=Main%20Page&tlnamespace=2|10
p74
sVreadrights
p75
V
sVallexamples
p76
(lp77
(dp78
V*
Vapi.php?action=query&prop=templates&titles=Main%20Page
p79
sVdescription
p80
VGet templates from the [[Main Page]]
p81
sa(dp82
V*
Vapi.php?action=query&generator=templates&titles=Main%20Page&prop=info
p83
sVdescription
p84
VGet information about the template pages in the [[Main Page]]
p85
sa(dp86
V*
Vapi.php?action=query&prop=templates&titles=Main%20Page&tlnamespace=2|10
p87
sVdescription
p88
VGet templates from the Main Page in the User and Template namespaces
p89
sasVquerytype
p90
Vprop
p91
sVname
p92
Vtemplates
p93
sassacdatetime
datetime
p94
(S'\x07\xde\t\x14\x0b\x115\r\x1f`'
tRp95
a.